; Function Attrs: mustprogress nofree nounwind willreturn memory(read, inaccessiblemem: none) uwtable
define internal i32 @der_cmp(ptr noundef readonly captures(none) %0, ptr noundef readonly captures(none) %1) #4 {
  %3 = getelementptr inbounds nuw i8, ptr %0, i64 8
  %4 = load i32, ptr %3, align 8, !tbaa !35
  %5 = getelementptr inbounds nuw i8, ptr %1, i64 8
  %6 = load i32, ptr %5, align 8, !tbaa !35
  %. = tail call i32 @llvm.smin.i32(i32 %4, i32 %6)
  %7 = load ptr, ptr %0, align 8, !tbaa !33
  %8 = load ptr, ptr %1, align 8, !tbaa !33
  %9 = sext i32 %. to i64
  %10 = tail call i32 @memcmp(ptr noundef %7, ptr noundef %8, i64 noundef %9) #9
  %.not = icmp eq i32 %10, 0
  %11 = sub nsw i32 %4, %6
  %spec.select = select i1 %.not, i32 %11, i32 %10
  ret i32 %spec.select
}